target datalayout = "e-m:e-p270:32:32-p271:32:32-p272:64:64-i64:64-i128:128-f80:128-n8:16:32:64-S128"
target triple = "x86_64-pc-linux-gnu"

%"class.boost::log::v2_mt_posix::attribute_value_set" = type { ptr }
%"class.boost::log::v2_mt_posix::attribute_set" = type { ptr }
%"struct.boost::log::v2_mt_posix::attribute_value_set::implementation" = type { ptr, ptr, ptr, %"class.boost::intrusive::list", ptr, ptr, [16 x %"struct.boost::log::v2_mt_posix::attribute_value_set::implementation::bucket"] }
%"class.boost::intrusive::list" = type { %"class.boost::intrusive::list_impl" }
%"class.boost::intrusive::list_impl" = type { %"struct.boost::intrusive::list_impl<boost::intrusive::derivation_value_traits<boost::log::v2_mt_posix::attribute_value_set::node, boost::log::v2_mt_posix::attribute_value_set::implementation::node_traits, boost::intrusive::normal_link>, unsigned long, true, void>::data_t" }
%"struct.boost::intrusive::list_impl<boost::intrusive::derivation_value_traits<boost::log::v2_mt_posix::attribute_value_set::node, boost::log::v2_mt_posix::attribute_value_set::implementation::node_traits, boost::intrusive::normal_link>, unsigned long, true, void>::data_t" = type { %"struct.boost::intrusive::list_impl<boost::intrusive::derivation_value_traits<boost::log::v2_mt_posix::attribute_value_set::node, boost::log::v2_mt_posix::attribute_value_set::implementation::node_traits, boost::intrusive::normal_link>, unsigned long, true, void>::root_plus_size" }
%"struct.boost::intrusive::list_impl<boost::intrusive::derivation_value_traits<boost::log::v2_mt_posix::attribute_value_set::node, boost::log::v2_mt_posix::attribute_value_set::implementation::node_traits, boost::intrusive::normal_link>, unsigned long, true, void>::root_plus_size" = type { %"struct.boost::intrusive::detail::size_holder", %"struct.boost::intrusive::detail::default_header_holder" }
%"struct.boost::intrusive::detail::size_holder" = type { i64 }
%"struct.boost::intrusive::detail::default_header_holder" = type { %"struct.boost::log::v2_mt_posix::attribute_value_set::node_base" }
%"struct.boost::log::v2_mt_posix::attribute_value_set::node_base" = type { ptr, ptr }
%"struct.boost::log::v2_mt_posix::attribute_value_set::implementation::bucket" = type { ptr, ptr }

; Function Attrs: mustprogress nounwind uwtable
define linkonce_odr hidden noundef ptr @_ZN5boost3log11v2_mt_posix19attribute_value_set14implementation6createEOS2_RKNS1_13attribute_setES7_m(ptr noundef nonnull align 8 dereferenceable(8) %0, ptr noundef nonnull align 8 dereferenceable(8) %1, ptr noundef nonnull align 8 dereferenceable(8) %2, i64 noundef %3) #1 comdat align 2 {
  %5 = alloca ptr, align 8
  %6 = alloca ptr, align 8
  %7 = alloca ptr, align 8
  %8 = alloca i64, align 8
  %9 = alloca ptr, align 8
  store ptr %0, ptr %5, align 8, !tbaa !3
  store ptr %1, ptr %6, align 8, !tbaa !3
  store ptr %2, ptr %7, align 8, !tbaa !3
  store i64 %3, ptr %8, align 8, !tbaa !7
  call void @llvm.lifetime.start.p0(i64 8, ptr %9) #14
  %10 = load ptr, ptr %5, align 8, !tbaa !3
  %11 = getelementptr inbounds nuw %"class.boost::log::v2_mt_posix::attribute_value_set", ptr %10, i32 0, i32 0
  %12 = load ptr, ptr %11, align 8, !tbaa !9
  store ptr %12, ptr %9, align 8, !tbaa !3
  %13 = load ptr, ptr %5, align 8, !tbaa !3
  %14 = getelementptr inbounds nuw %"class.boost::log::v2_mt_posix::attribute_value_set", ptr %13, i32 0, i32 0
  store ptr null, ptr %14, align 8, !tbaa !9
  %15 = load ptr, ptr %6, align 8, !tbaa !3
  %16 = getelementptr inbounds nuw %"class.boost::log::v2_mt_posix::attribute_set", ptr %15, i32 0, i32 0
  %17 = load ptr, ptr %16, align 8, !tbaa !11
  %18 = load ptr, ptr %9, align 8, !tbaa !3
  %19 = getelementptr inbounds nuw %"struct.boost::log::v2_mt_posix::attribute_value_set::implementation", ptr %18, i32 0, i32 1
  store ptr %17, ptr %19, align 8, !tbaa !13
  %20 = load ptr, ptr %7, align 8, !tbaa !3
  %21 = getelementptr inbounds nuw %"class.boost::log::v2_mt_posix::attribute_set", ptr %20, i32 0, i32 0
  %22 = load ptr, ptr %21, align 8, !tbaa !11
  %23 = load ptr, ptr %9, align 8, !tbaa !3
  %24 = getelementptr inbounds nuw %"struct.boost::log::v2_mt_posix::attribute_value_set::implementation", ptr %23, i32 0, i32 2
  store ptr %22, ptr %24, align 8, !tbaa !22
  %25 = load ptr, ptr %9, align 8, !tbaa !3
  call void @llvm.lifetime.end.p0(i64 8, ptr %9) #14
  ret ptr %25
}

; Function Attrs: inlinehint mustprogress nounwind uwtable
define linkonce_odr hidden noundef nonnull align 8 dereferenceable(8) ptr @_ZN5boost4moveIRNS_3log11v2_mt_posix19attribute_value_setEEEONS_11move_detail16remove_referenceIT_E4typeEOS7_(ptr noundef nonnull align 8 dereferenceable(8) %0) #2 comdat {
  %2 = alloca ptr, align 8
  store ptr %0, ptr %2, align 8, !tbaa !3
  %3 = load ptr, ptr %2, align 8, !tbaa !3
  ret ptr %3
}

; Function Attrs: mustprogress uwtable
define void @_ZN5boost3log11v2_mt_posix19attribute_value_set9constructERS2_RKNS1_13attribute_setES6_m(ptr noundef nonnull align 8 dereferenceable(8) %0, ptr noundef nonnull align 8 dereferenceable(8) %1, ptr noundef nonnull align 8 dereferenceable(8) %2, ptr noundef nonnull align 8 dereferenceable(8) %3, i64 noundef %4) #0 align 2 {
  %6 = alloca ptr, align 8
  %7 = alloca ptr, align 8
  %8 = alloca ptr, align 8
  %9 = alloca ptr, align 8
  %10 = alloca i64, align 8
  store ptr %0, ptr %6, align 8, !tbaa !3
  store ptr %1, ptr %7, align 8, !tbaa !3
  store ptr %2, ptr %8, align 8, !tbaa !3
  store ptr %3, ptr %9, align 8, !tbaa !3
  store i64 %4, ptr %10, align 8, !tbaa !7
  %11 = load ptr, ptr %6, align 8
  %12 = load ptr, ptr %7, align 8, !tbaa !3
  %13 = call noundef nonnull align 8 dereferenceable(8) ptr @_ZN5boost4moveIRNS_3log11v2_mt_posix19attribute_value_setEEEONS_11move_detail16remove_referenceIT_E4typeEOS7_(ptr noundef nonnull align 8 dereferenceable(8) %12) #14
  %14 = load ptr, ptr %8, align 8, !tbaa !3
  %15 = load ptr, ptr %9, align 8, !tbaa !3
  %16 = load i64, ptr %10, align 8, !tbaa !7
  %17 = call noundef ptr @_ZN5boost3log11v2_mt_posix19attribute_value_set14implementation6createEOS2_RKNS1_13attribute_setES7_m(ptr noundef nonnull align 8 dereferenceable(8) %13, ptr noundef nonnull align 8 dereferenceable(8) %14, ptr noundef nonnull align 8 dereferenceable(8) %15, i64 noundef %16)
  %18 = getelementptr inbounds nuw %"class.boost::log::v2_mt_posix::attribute_value_set", ptr %11, i32 0, i32 0
  store ptr %17, ptr %18, align 8, !tbaa !9
  ret void
}