; Function Attrs: mustprogress nofree norecurse nosync nounwind willreturn memory(write, argmem: readwrite, inaccessiblemem: none) uwtable
define void @_ZN5boost3log11v2_mt_posix19attribute_value_set9constructERS2_RKNS1_13attribute_setES6_m(ptr nocapture noundef nonnull writeonly align 8 dereferenceable(8) %0, ptr nocapture noundef nonnull align 8 dereferenceable(8) %1, ptr nocapture noundef nonnull readonly align 8 dereferenceable(8) %2, ptr nocapture noundef nonnull readonly align 8 dereferenceable(8) %3, i64 noundef %4) local_unnamed_addr #1 align 2 {
  %6 = load ptr, ptr %1, align 8, !tbaa !21
  store ptr null, ptr %1, align 8, !tbaa !21
  %7 = load ptr, ptr %2, align 8, !tbaa !23
  %8 = getelementptr inbounds nuw i8, ptr %6, i64 8
  store ptr %7, ptr %8, align 8, !tbaa !27
  %9 = load ptr, ptr %3, align 8, !tbaa !23
  %10 = getelementptr inbounds nuw i8, ptr %6, i64 16
  store ptr %9, ptr %10, align 8, !tbaa !28
  store ptr %6, ptr %0, align 8, !tbaa !21
  ret void
}